; Function Attrs: null_pointer_is_valid sspstrong uwtable
define internal noundef zeroext i1 @dissect_gmi_parameter(ptr noundef %0, ptr readnone captures(none) %1, ptr noundef %2, i32 noundef %3, i32 noundef %4, i16 noundef zeroext %5, ptr readnone captures(none) %6, i32 noundef %7, i32 noundef %8, ptr readnone captures(none) %9, ptr readnone captures(none) %10) #0 {
  %12 = icmp eq i32 %4, 1
  %13 = icmp eq i16 %5, 58
  %or.cond.not11.not14 = and i1 %12, %13
  %14 = icmp ult i32 %7, 2
  %or.cond9.not = and i1 %or.cond.not11.not14, %14
  br i1 %or.cond9.not, label %15, label %18

15:                                               ; preds = %11
  %16 = load i32, ptr @hf_gmi_manufacturer_id, align 4
  %17 = tail call ptr @proto_tree_add_item(ptr noundef %2, i32 noundef %16, ptr noundef %0, i32 noundef %3, i32 noundef %8, i32 noundef 0)
  br label %18

18:                                               ; preds = %11, %15
  ret i1 %or.cond9.not
}